target datalayout = "e-m:e-p270:32:32-p271:32:32-p272:64:64-i64:64-i128:128-f80:128-n8:16:32:64-S128"
target triple = "x86_64-pc-linux-gnu"

%struct.opj_codestream_info_v2 = type { i32, i32, i32, i32, i32, i32, i32, %struct.opj_tile_v2_info, ptr }
%struct.opj_tile_v2_info = type { i32, i32, i32, i32, i32, ptr }

; Function Attrs: nounwind uwtable
define hidden void @opj_destroy_cstr_info(ptr noundef %0) #0 {
  %2 = alloca ptr, align 8
  store ptr %0, ptr %2, align 8, !tbaa !80
  %3 = load ptr, ptr %2, align 8, !tbaa !80
  %4 = icmp ne ptr %3, null
  br i1 %4, label %5, label %29

5:                                                ; preds = %1
  %6 = load ptr, ptr %2, align 8, !tbaa !80
  %7 = load ptr, ptr %6, align 8, !tbaa !82
  %8 = getelementptr inbounds nuw %struct.opj_codestream_info_v2, ptr %7, i32 0, i32 7
  %9 = getelementptr inbounds nuw %struct.opj_tile_v2_info, ptr %8, i32 0, i32 5
  %10 = load ptr, ptr %9, align 8, !tbaa !84
  %11 = icmp ne ptr %10, null
  br i1 %11, label %12, label %18

12:                                               ; preds = %5
  %13 = load ptr, ptr %2, align 8, !tbaa !80
  %14 = load ptr, ptr %13, align 8, !tbaa !82
  %15 = getelementptr inbounds nuw %struct.opj_codestream_info_v2, ptr %14, i32 0, i32 7
  %16 = getelementptr inbounds nuw %struct.opj_tile_v2_info, ptr %15, i32 0, i32 5
  %17 = load ptr, ptr %16, align 8, !tbaa !84
  call void @opj_free(ptr noundef %17)
  br label %18

18:                                               ; preds = %12, %5
  %19 = load ptr, ptr %2, align 8, !tbaa !80
  %20 = load ptr, ptr %19, align 8, !tbaa !82
  %21 = getelementptr inbounds nuw %struct.opj_codestream_info_v2, ptr %20, i32 0, i32 8
  %22 = load ptr, ptr %21, align 8, !tbaa !89
  %23 = icmp ne ptr %22, null
  br i1 %23, label %24, label %25

24:                                               ; preds = %18
  br label %25

25:                                               ; preds = %24, %18
  %26 = load ptr, ptr %2, align 8, !tbaa !80
  %27 = load ptr, ptr %26, align 8, !tbaa !82
  call void @opj_free(ptr noundef %27)
  %28 = load ptr, ptr %2, align 8, !tbaa !80
  store ptr null, ptr %28, align 8, !tbaa !82
  br label %29

29:                                               ; preds = %25, %1
  ret void
}