; Function Attrs: nounwind uwtable
define hidden void @opj_destroy_cstr_info(ptr noundef %0) local_unnamed_addr #2 {
  %.not = icmp eq ptr %0, null
  br i1 %.not, label %9, label %2

2:                                                ; preds = %1
  %3 = load ptr, ptr %0, align 8, !tbaa !45
  %4 = getelementptr inbounds nuw i8, ptr %3, i64 56
  %5 = load ptr, ptr %4, align 8, !tbaa !47
  %.not7 = icmp eq ptr %5, null
  br i1 %.not7, label %7, label %6

6:                                                ; preds = %2
  tail call void @opj_free(ptr noundef nonnull %5) #8
  %.pre = load ptr, ptr %0, align 8, !tbaa !45
  br label %7

7:                                                ; preds = %6, %2
  %8 = phi ptr [ %.pre, %6 ], [ %3, %2 ]
  tail call void @opj_free(ptr noundef %8) #8
  store ptr null, ptr %0, align 8, !tbaa !45
  br label %9

9:                                                ; preds = %7, %1
  ret void
}